target datalayout = "e-m:e-p270:32:32-p271:32:32-p272:64:64-i64:64-i128:128-f80:128-n8:16:32:64-S128"
target triple = "x86_64-pc-linux-gnu"

%struct._lv_font_t = type { ptr, ptr, ptr, i32, i32, i8, i8, i8, ptr, ptr, ptr }
%struct.lv_font_fmt_txt_dsc_t = type { ptr, ptr, ptr, ptr, i16, i16 }
%struct.lv_font_fmt_txt_cmap_t = type { i32, i16, i16, ptr, ptr, i16, i32 }

; Function Attrs: nounwind uwtable
define internal i32 @get_glyph_dsc_id(ptr noundef %0, i32 noundef %1) #0 {
  %3 = alloca i32, align 4
  %4 = alloca ptr, align 8
  %5 = alloca i32, align 4
  %6 = alloca ptr, align 8
  %7 = alloca i16, align 2
  %8 = alloca i32, align 4
  %9 = alloca i32, align 4
  %10 = alloca i32, align 4
  %11 = alloca ptr, align 8
  %12 = alloca i16, align 2
  %13 = alloca ptr, align 8
  %14 = alloca i64, align 8
  %15 = alloca i16, align 2
  %16 = alloca ptr, align 8
  %17 = alloca i64, align 8
  %18 = alloca ptr, align 8
  store ptr %0, ptr %4, align 8, !tbaa !3
  store i32 %1, ptr %5, align 4, !tbaa !17
  %19 = load i32, ptr %5, align 4, !tbaa !17
  %20 = icmp eq i32 %19, 0
  br i1 %20, label %21, label %22

21:                                               ; preds = %2
  store i32 0, ptr %3, align 4
  br label %258

22:                                               ; preds = %2
  call void @llvm.lifetime.start.p0(i64 8, ptr %6) #3
  %23 = load ptr, ptr %4, align 8, !tbaa !3
  %24 = getelementptr inbounds nuw %struct._lv_font_t, ptr %23, i32 0, i32 8
  %25 = load ptr, ptr %24, align 8, !tbaa !14
  store ptr %25, ptr %6, align 8, !tbaa !3
  call void @llvm.lifetime.start.p0(i64 2, ptr %7) #3
  store i16 0, ptr %7, align 2, !tbaa !45
  br label %26

26:                                               ; preds = %253, %22
  %27 = load i16, ptr %7, align 2, !tbaa !45
  %28 = zext i16 %27 to i32
  %29 = load ptr, ptr %6, align 8, !tbaa !3
  %30 = getelementptr inbounds nuw %struct.lv_font_fmt_txt_dsc_t, ptr %29, i32 0, i32 5
  %31 = load i16, ptr %30, align 2
  %32 = and i16 %31, 511
  %33 = zext i16 %32 to i32
  %34 = icmp slt i32 %28, %33
  br i1 %34, label %35, label %256

35:                                               ; preds = %26
  call void @llvm.lifetime.start.p0(i64 4, ptr %8) #3
  %36 = load i32, ptr %5, align 4, !tbaa !17
  %37 = load ptr, ptr %6, align 8, !tbaa !3
  %38 = getelementptr inbounds nuw %struct.lv_font_fmt_txt_dsc_t, ptr %37, i32 0, i32 2
  %39 = load ptr, ptr %38, align 8, !tbaa !46
  %40 = load i16, ptr %7, align 2, !tbaa !45
  %41 = zext i16 %40 to i64
  %42 = getelementptr inbounds nuw %struct.lv_font_fmt_txt_cmap_t, ptr %39, i64 %41
  %43 = getelementptr inbounds nuw %struct.lv_font_fmt_txt_cmap_t, ptr %42, i32 0, i32 0
  %44 = load i32, ptr %43, align 8, !tbaa !47
  %45 = sub i32 %36, %44
  store i32 %45, ptr %8, align 4, !tbaa !17
  %46 = load i32, ptr %8, align 4, !tbaa !17
  %47 = load ptr, ptr %6, align 8, !tbaa !3
  %48 = getelementptr inbounds nuw %struct.lv_font_fmt_txt_dsc_t, ptr %47, i32 0, i32 2
  %49 = load ptr, ptr %48, align 8, !tbaa !46
  %50 = load i16, ptr %7, align 2, !tbaa !45
  %51 = zext i16 %50 to i64
  %52 = getelementptr inbounds nuw %struct.lv_font_fmt_txt_cmap_t, ptr %49, i64 %51
  %53 = getelementptr inbounds nuw %struct.lv_font_fmt_txt_cmap_t, ptr %52, i32 0, i32 1
  %54 = load i16, ptr %53, align 4, !tbaa !49
  %55 = zext i16 %54 to i32
  %56 = icmp uge i32 %46, %55
  br i1 %56, label %57, label %58

57:                                               ; preds = %35
  store i32 4, ptr %9, align 4
  br label %251

58:                                               ; preds = %35
  call void @llvm.lifetime.start.p0(i64 4, ptr %10) #3
  store i32 0, ptr %10, align 4, !tbaa !17
  %59 = load ptr, ptr %6, align 8, !tbaa !3
  %60 = getelementptr inbounds nuw %struct.lv_font_fmt_txt_dsc_t, ptr %59, i32 0, i32 2
  %61 = load ptr, ptr %60, align 8, !tbaa !46
  %62 = load i16, ptr %7, align 2, !tbaa !45
  %63 = zext i16 %62 to i64
  %64 = getelementptr inbounds nuw %struct.lv_font_fmt_txt_cmap_t, ptr %61, i64 %63
  %65 = getelementptr inbounds nuw %struct.lv_font_fmt_txt_cmap_t, ptr %64, i32 0, i32 6
  %66 = load i32, ptr %65, align 4, !tbaa !50
  %67 = icmp eq i32 %66, 2
  br i1 %67, label %68, label %80

68:                                               ; preds = %58
  %69 = load ptr, ptr %6, align 8, !tbaa !3
  %70 = getelementptr inbounds nuw %struct.lv_font_fmt_txt_dsc_t, ptr %69, i32 0, i32 2
  %71 = load ptr, ptr %70, align 8, !tbaa !46
  %72 = load i16, ptr %7, align 2, !tbaa !45
  %73 = zext i16 %72 to i64
  %74 = getelementptr inbounds nuw %struct.lv_font_fmt_txt_cmap_t, ptr %71, i64 %73
  %75 = getelementptr inbounds nuw %struct.lv_font_fmt_txt_cmap_t, ptr %74, i32 0, i32 2
  %76 = load i16, ptr %75, align 2, !tbaa !51
  %77 = zext i16 %76 to i32
  %78 = load i32, ptr %8, align 4, !tbaa !17
  %79 = add i32 %77, %78
  store i32 %79, ptr %10, align 4, !tbaa !17
  br label %249

80:                                               ; preds = %58
  %81 = load ptr, ptr %6, align 8, !tbaa !3
  %82 = getelementptr inbounds nuw %struct.lv_font_fmt_txt_dsc_t, ptr %81, i32 0, i32 2
  %83 = load ptr, ptr %82, align 8, !tbaa !46
  %84 = load i16, ptr %7, align 2, !tbaa !45
  %85 = zext i16 %84 to i64
  %86 = getelementptr inbounds nuw %struct.lv_font_fmt_txt_cmap_t, ptr %83, i64 %85
  %87 = getelementptr inbounds nuw %struct.lv_font_fmt_txt_cmap_t, ptr %86, i32 0, i32 6
  %88 = load i32, ptr %87, align 4, !tbaa !50
  %89 = icmp eq i32 %88, 0
  br i1 %89, label %90, label %115

90:                                               ; preds = %80
  call void @llvm.lifetime.start.p0(i64 8, ptr %11) #3
  %91 = load ptr, ptr %6, align 8, !tbaa !3
  %92 = getelementptr inbounds nuw %struct.lv_font_fmt_txt_dsc_t, ptr %91, i32 0, i32 2
  %93 = load ptr, ptr %92, align 8, !tbaa !46
  %94 = load i16, ptr %7, align 2, !tbaa !45
  %95 = zext i16 %94 to i64
  %96 = getelementptr inbounds nuw %struct.lv_font_fmt_txt_cmap_t, ptr %93, i64 %95
  %97 = getelementptr inbounds nuw %struct.lv_font_fmt_txt_cmap_t, ptr %96, i32 0, i32 4
  %98 = load ptr, ptr %97, align 8, !tbaa !52
  store ptr %98, ptr %11, align 8, !tbaa !3
  %99 = load ptr, ptr %6, align 8, !tbaa !3
  %100 = getelementptr inbounds nuw %struct.lv_font_fmt_txt_dsc_t, ptr %99, i32 0, i32 2
  %101 = load ptr, ptr %100, align 8, !tbaa !46
  %102 = load i16, ptr %7, align 2, !tbaa !45
  %103 = zext i16 %102 to i64
  %104 = getelementptr inbounds nuw %struct.lv_font_fmt_txt_cmap_t, ptr %101, i64 %103
  %105 = getelementptr inbounds nuw %struct.lv_font_fmt_txt_cmap_t, ptr %104, i32 0, i32 2
  %106 = load i16, ptr %105, align 2, !tbaa !51
  %107 = zext i16 %106 to i32
  %108 = load ptr, ptr %11, align 8, !tbaa !3
  %109 = load i32, ptr %8, align 4, !tbaa !17
  %110 = zext i32 %109 to i64
  %111 = getelementptr inbounds nuw i8, ptr %108, i64 %110
  %112 = load i8, ptr %111, align 1, !tbaa !16
  %113 = zext i8 %112 to i32
  %114 = add nsw i32 %107, %113
  store i32 %114, ptr %10, align 4, !tbaa !17
  call void @llvm.lifetime.end.p0(i64 8, ptr %11) #3
  br label %248

115:                                              ; preds = %80
  %116 = load ptr, ptr %6, align 8, !tbaa !3
  %117 = getelementptr inbounds nuw %struct.lv_font_fmt_txt_dsc_t, ptr %116, i32 0, i32 2
  %118 = load ptr, ptr %117, align 8, !tbaa !46
  %119 = load i16, ptr %7, align 2, !tbaa !45
  %120 = zext i16 %119 to i64
  %121 = getelementptr inbounds nuw %struct.lv_font_fmt_txt_cmap_t, ptr %118, i64 %120
  %122 = getelementptr inbounds nuw %struct.lv_font_fmt_txt_cmap_t, ptr %121, i32 0, i32 6
  %123 = load i32, ptr %122, align 4, !tbaa !50
  %124 = icmp eq i32 %123, 3
  br i1 %124, label %125, label %175

125:                                              ; preds = %115
  call void @llvm.lifetime.start.p0(i64 2, ptr %12) #3
  %126 = load i32, ptr %8, align 4, !tbaa !17
  %127 = trunc i32 %126 to i16
  store i16 %127, ptr %12, align 2, !tbaa !45
  call void @llvm.lifetime.start.p0(i64 8, ptr %13) #3
  %128 = load ptr, ptr %6, align 8, !tbaa !3
  %129 = getelementptr inbounds nuw %struct.lv_font_fmt_txt_dsc_t, ptr %128, i32 0, i32 2
  %130 = load ptr, ptr %129, align 8, !tbaa !46
  %131 = load i16, ptr %7, align 2, !tbaa !45
  %132 = zext i16 %131 to i64
  %133 = getelementptr inbounds nuw %struct.lv_font_fmt_txt_cmap_t, ptr %130, i64 %132
  %134 = getelementptr inbounds nuw %struct.lv_font_fmt_txt_cmap_t, ptr %133, i32 0, i32 3
  %135 = load ptr, ptr %134, align 8, !tbaa !53
  %136 = load ptr, ptr %6, align 8, !tbaa !3
  %137 = getelementptr inbounds nuw %struct.lv_font_fmt_txt_dsc_t, ptr %136, i32 0, i32 2
  %138 = load ptr, ptr %137, align 8, !tbaa !46
  %139 = load i16, ptr %7, align 2, !tbaa !45
  %140 = zext i16 %139 to i64
  %141 = getelementptr inbounds nuw %struct.lv_font_fmt_txt_cmap_t, ptr %138, i64 %140
  %142 = getelementptr inbounds nuw %struct.lv_font_fmt_txt_cmap_t, ptr %141, i32 0, i32 5
  %143 = load i16, ptr %142, align 8, !tbaa !54
  %144 = zext i16 %143 to i64
  %145 = call ptr @lv_utils_bsearch(ptr noundef %12, ptr noundef %135, i64 noundef %144, i64 noundef 2, ptr noundef @unicode_list_compare)
  store ptr %145, ptr %13, align 8, !tbaa !3
  %146 = load ptr, ptr %13, align 8, !tbaa !3
  %147 = icmp ne ptr %146, null
  br i1 %147, label %148, label %174

148:                                              ; preds = %125
  call void @llvm.lifetime.start.p0(i64 8, ptr %14) #3
  %149 = load ptr, ptr %13, align 8, !tbaa !3
  %150 = load ptr, ptr %6, align 8, !tbaa !3
  %151 = getelementptr inbounds nuw %struct.lv_font_fmt_txt_dsc_t, ptr %150, i32 0, i32 2
  %152 = load ptr, ptr %151, align 8, !tbaa !46
  %153 = load i16, ptr %7, align 2, !tbaa !45
  %154 = zext i16 %153 to i64
  %155 = getelementptr inbounds nuw %struct.lv_font_fmt_txt_cmap_t, ptr %152, i64 %154
  %156 = getelementptr inbounds nuw %struct.lv_font_fmt_txt_cmap_t, ptr %155, i32 0, i32 3
  %157 = load ptr, ptr %156, align 8, !tbaa !53
  %158 = ptrtoint ptr %149 to i64
  %159 = ptrtoint ptr %157 to i64
  %160 = sub i64 %158, %159
  %161 = sdiv exact i64 %160, 2
  store i64 %161, ptr %14, align 8, !tbaa !55
  %162 = load ptr, ptr %6, align 8, !tbaa !3
  %163 = getelementptr inbounds nuw %struct.lv_font_fmt_txt_dsc_t, ptr %162, i32 0, i32 2
  %164 = load ptr, ptr %163, align 8, !tbaa !46
  %165 = load i16, ptr %7, align 2, !tbaa !45
  %166 = zext i16 %165 to i64
  %167 = getelementptr inbounds nuw %struct.lv_font_fmt_txt_cmap_t, ptr %164, i64 %166
  %168 = getelementptr inbounds nuw %struct.lv_font_fmt_txt_cmap_t, ptr %167, i32 0, i32 2
  %169 = load i16, ptr %168, align 2, !tbaa !51
  %170 = zext i16 %169 to i32
  %171 = load i64, ptr %14, align 8, !tbaa !55
  %172 = trunc i64 %171 to i32
  %173 = add i32 %170, %172
  store i32 %173, ptr %10, align 4, !tbaa !17
  call void @llvm.lifetime.end.p0(i64 8, ptr %14) #3
  br label %174

174:                                              ; preds = %148, %125
  call void @llvm.lifetime.end.p0(i64 8, ptr %13) #3
  call void @llvm.lifetime.end.p0(i64 2, ptr %12) #3
  br label %247

175:                                              ; preds = %115
  %176 = load ptr, ptr %6, align 8, !tbaa !3
  %177 = getelementptr inbounds nuw %struct.lv_font_fmt_txt_dsc_t, ptr %176, i32 0, i32 2
  %178 = load ptr, ptr %177, align 8, !tbaa !46
  %179 = load i16, ptr %7, align 2, !tbaa !45
  %180 = zext i16 %179 to i64
  %181 = getelementptr inbounds nuw %struct.lv_font_fmt_txt_cmap_t, ptr %178, i64 %180
  %182 = getelementptr inbounds nuw %struct.lv_font_fmt_txt_cmap_t, ptr %181, i32 0, i32 6
  %183 = load i32, ptr %182, align 4, !tbaa !50
  %184 = icmp eq i32 %183, 1
  br i1 %184, label %185, label %246

185:                                              ; preds = %175
  call void @llvm.lifetime.start.p0(i64 2, ptr %15) #3
  %186 = load i32, ptr %8, align 4, !tbaa !17
  %187 = trunc i32 %186 to i16
  store i16 %187, ptr %15, align 2, !tbaa !45
  call void @llvm.lifetime.start.p0(i64 8, ptr %16) #3
  %188 = load ptr, ptr %6, align 8, !tbaa !3
  %189 = getelementptr inbounds nuw %struct.lv_font_fmt_txt_dsc_t, ptr %188, i32 0, i32 2
  %190 = load ptr, ptr %189, align 8, !tbaa !46
  %191 = load i16, ptr %7, align 2, !tbaa !45
  %192 = zext i16 %191 to i64
  %193 = getelementptr inbounds nuw %struct.lv_font_fmt_txt_cmap_t, ptr %190, i64 %192
  %194 = getelementptr inbounds nuw %struct.lv_font_fmt_txt_cmap_t, ptr %193, i32 0, i32 3
  %195 = load ptr, ptr %194, align 8, !tbaa !53
  %196 = load ptr, ptr %6, align 8, !tbaa !3
  %197 = getelementptr inbounds nuw %struct.lv_font_fmt_txt_dsc_t, ptr %196, i32 0, i32 2
  %198 = load ptr, ptr %197, align 8, !tbaa !46
  %199 = load i16, ptr %7, align 2, !tbaa !45
  %200 = zext i16 %199 to i64
  %201 = getelementptr inbounds nuw %struct.lv_font_fmt_txt_cmap_t, ptr %198, i64 %200
  %202 = getelementptr inbounds nuw %struct.lv_font_fmt_txt_cmap_t, ptr %201, i32 0, i32 5
  %203 = load i16, ptr %202, align 8, !tbaa !54
  %204 = zext i16 %203 to i64
  %205 = call ptr @lv_utils_bsearch(ptr noundef %15, ptr noundef %195, i64 noundef %204, i64 noundef 2, ptr noundef @unicode_list_compare)
  store ptr %205, ptr %16, align 8, !tbaa !3
  %206 = load ptr, ptr %16, align 8, !tbaa !3
  %207 = icmp ne ptr %206, null
  br i1 %207, label %208, label %245

208:                                              ; preds = %185
  call void @llvm.lifetime.start.p0(i64 8, ptr %17) #3
  %209 = load ptr, ptr %16, align 8, !tbaa !3
  %210 = load ptr, ptr %6, align 8, !tbaa !3
  %211 = getelementptr inbounds nuw %struct.lv_font_fmt_txt_dsc_t, ptr %210, i32 0, i32 2
  %212 = load ptr, ptr %211, align 8, !tbaa !46
  %213 = load i16, ptr %7, align 2, !tbaa !45
  %214 = zext i16 %213 to i64
  %215 = getelementptr inbounds nuw %struct.lv_font_fmt_txt_cmap_t, ptr %212, i64 %214
  %216 = getelementptr inbounds nuw %struct.lv_font_fmt_txt_cmap_t, ptr %215, i32 0, i32 3
  %217 = load ptr, ptr %216, align 8, !tbaa !53
  %218 = ptrtoint ptr %209 to i64
  %219 = ptrtoint ptr %217 to i64
  %220 = sub i64 %218, %219
  %221 = sdiv exact i64 %220, 2
  store i64 %221, ptr %17, align 8, !tbaa !55
  call void @llvm.lifetime.start.p0(i64 8, ptr %18) #3
  %222 = load ptr, ptr %6, align 8, !tbaa !3
  %223 = getelementptr inbounds nuw %struct.lv_font_fmt_txt_dsc_t, ptr %222, i32 0, i32 2
  %224 = load ptr, ptr %223, align 8, !tbaa !46
  %225 = load i16, ptr %7, align 2, !tbaa !45
  %226 = zext i16 %225 to i64
  %227 = getelementptr inbounds nuw %struct.lv_font_fmt_txt_cmap_t, ptr %224, i64 %226
  %228 = getelementptr inbounds nuw %struct.lv_font_fmt_txt_cmap_t, ptr %227, i32 0, i32 4
  %229 = load ptr, ptr %228, align 8, !tbaa !52
  store ptr %229, ptr %18, align 8, !tbaa !3
  %230 = load ptr, ptr %6, align 8, !tbaa !3
  %231 = getelementptr inbounds nuw %struct.lv_font_fmt_txt_dsc_t, ptr %230, i32 0, i32 2
  %232 = load ptr, ptr %231, align 8, !tbaa !46
  %233 = load i16, ptr %7, align 2, !tbaa !45
  %234 = zext i16 %233 to i64
  %235 = getelementptr inbounds nuw %struct.lv_font_fmt_txt_cmap_t, ptr %232, i64 %234
  %236 = getelementptr inbounds nuw %struct.lv_font_fmt_txt_cmap_t, ptr %235, i32 0, i32 2
  %237 = load i16, ptr %236, align 2, !tbaa !51
  %238 = zext i16 %237 to i32
  %239 = load ptr, ptr %18, align 8, !tbaa !3
  %240 = load i64, ptr %17, align 8, !tbaa !55
  %241 = getelementptr inbounds nuw i16, ptr %239, i64 %240
  %242 = load i16, ptr %241, align 2, !tbaa !45
  %243 = zext i16 %242 to i32
  %244 = add nsw i32 %238, %243
  store i32 %244, ptr %10, align 4, !tbaa !17
  call void @llvm.lifetime.end.p0(i64 8, ptr %18) #3
  call void @llvm.lifetime.end.p0(i64 8, ptr %17) #3
  br label %245

245:                                              ; preds = %208, %185
  call void @llvm.lifetime.end.p0(i64 8, ptr %16) #3
  call void @llvm.lifetime.end.p0(i64 2, ptr %15) #3
  br label %246

246:                                              ; preds = %245, %175
  br label %247

247:                                              ; preds = %246, %174
  br label %248

248:                                              ; preds = %247, %90
  br label %249

249:                                              ; preds = %248, %68
  %250 = load i32, ptr %10, align 4, !tbaa !17
  store i32 %250, ptr %3, align 4
  store i32 1, ptr %9, align 4
  call void @llvm.lifetime.end.p0(i64 4, ptr %10) #3
  br label %251

251:                                              ; preds = %249, %57
  call void @llvm.lifetime.end.p0(i64 4, ptr %8) #3
  %252 = load i32, ptr %9, align 4
  switch i32 %252, label %257 [
    i32 4, label %253
  ]

253:                                              ; preds = %251
  %254 = load i16, ptr %7, align 2, !tbaa !45
  %255 = add i16 %254, 1
  store i16 %255, ptr %7, align 2, !tbaa !45
  br label %26, !llvm.loop !57

256:                                              ; preds = %26
  store i32 0, ptr %3, align 4
  store i32 1, ptr %9, align 4
  br label %257

257:                                              ; preds = %256, %251
  call void @llvm.lifetime.end.p0(i64 2, ptr %7) #3
  call void @llvm.lifetime.end.p0(i64 8, ptr %6) #3
  br label %258

258:                                              ; preds = %257, %21
  %259 = load i32, ptr %3, align 4
  ret i32 %259
}