; Function Attrs: nounwind uwtable
define internal fastcc i32 @get_glyph_dsc_id(ptr nocapture noundef readonly %0, i32 noundef %1) unnamed_addr #0 {
  %3 = alloca i16, align 2
  %4 = alloca i16, align 2
  %5 = icmp eq i32 %1, 0
  br i1 %5, label %.thread, label %6

6:                                                ; preds = %2
  %7 = getelementptr inbounds nuw i8, ptr %0, i64 40
  %8 = load ptr, ptr %7, align 8, !tbaa !13
  %9 = getelementptr inbounds nuw i8, ptr %8, i64 34
  %10 = load i16, ptr %9, align 2
  %11 = and i16 %10, 511
  %.not = icmp eq i16 %11, 0
  br i1 %.not, label %.thread, label %.lr.ph

.lr.ph:                                           ; preds = %6
  %12 = getelementptr inbounds nuw i8, ptr %8, i64 16
  %13 = load ptr, ptr %12, align 8, !tbaa !50
  %wide.trip.count = zext nneg i16 %11 to i64
  br label %15

14:                                               ; preds = %15
  %indvars.iv.next = add nuw nsw i64 %indvars.iv, 1
  %exitcond.not = icmp eq i64 %indvars.iv.next, %wide.trip.count
  br i1 %exitcond.not, label %.thread, label %15, !llvm.loop !51

15:                                               ; preds = %.lr.ph, %14
  %indvars.iv = phi i64 [ 0, %.lr.ph ], [ %indvars.iv.next, %14 ]
  %16 = getelementptr inbounds nuw %struct.lv_font_fmt_txt_cmap_t, ptr %13, i64 %indvars.iv
  %17 = load i32, ptr %16, align 8, !tbaa !52
  %18 = sub i32 %1, %17
  %19 = getelementptr inbounds nuw i8, ptr %16, i64 4
  %20 = load i16, ptr %19, align 4, !tbaa !54
  %21 = zext i16 %20 to i32
  %.not.not = icmp ult i32 %18, %21
  br i1 %.not.not, label %22, label %14

22:                                               ; preds = %15
  %23 = getelementptr inbounds nuw i8, ptr %16, i64 28
  %24 = load i32, ptr %23, align 4, !tbaa !55
  switch i32 %24, label %.thread [
    i32 2, label %25
    i32 0, label %30
    i32 3, label %41
    i32 1, label %64
  ]

25:                                               ; preds = %22
  %26 = getelementptr inbounds nuw i8, ptr %16, i64 6
  %27 = load i16, ptr %26, align 2, !tbaa !56
  %28 = zext i16 %27 to i32
  %29 = add nuw nsw i32 %18, %28
  br label %.thread

30:                                               ; preds = %22
  %31 = getelementptr inbounds nuw i8, ptr %16, i64 16
  %32 = load ptr, ptr %31, align 8, !tbaa !57
  %33 = getelementptr inbounds nuw i8, ptr %16, i64 6
  %34 = load i16, ptr %33, align 2, !tbaa !56
  %35 = zext i16 %34 to i32
  %36 = zext nneg i32 %18 to i64
  %37 = getelementptr inbounds nuw i8, ptr %32, i64 %36
  %38 = load i8, ptr %37, align 1, !tbaa !15
  %39 = zext i8 %38 to i32
  %40 = add nuw nsw i32 %39, %35
  br label %.thread

41:                                               ; preds = %22
  call void @llvm.lifetime.start.p0(i64 2, ptr nonnull %3) #4
  %42 = trunc nuw i32 %18 to i16
  store i16 %42, ptr %3, align 2, !tbaa !58
  %43 = getelementptr inbounds nuw i8, ptr %16, i64 8
  %44 = load ptr, ptr %43, align 8, !tbaa !59
  %45 = getelementptr inbounds nuw i8, ptr %16, i64 24
  %46 = load i16, ptr %45, align 8, !tbaa !60
  %47 = zext i16 %46 to i64
  %48 = call ptr @lv_utils_bsearch(ptr noundef nonnull %3, ptr noundef %44, i64 noundef %47, i64 noundef 2, ptr noundef nonnull @unicode_list_compare) #4
  %.not68 = icmp eq ptr %48, null
  br i1 %.not68, label %63, label %49

49:                                               ; preds = %41
  %50 = load ptr, ptr %12, align 8, !tbaa !50
  %51 = getelementptr inbounds nuw %struct.lv_font_fmt_txt_cmap_t, ptr %50, i64 %indvars.iv
  %52 = getelementptr inbounds nuw i8, ptr %51, i64 8
  %53 = load ptr, ptr %52, align 8, !tbaa !59
  %54 = ptrtoint ptr %48 to i64
  %55 = ptrtoint ptr %53 to i64
  %56 = sub i64 %54, %55
  %57 = lshr exact i64 %56, 1
  %58 = getelementptr inbounds nuw i8, ptr %51, i64 6
  %59 = load i16, ptr %58, align 2, !tbaa !56
  %60 = zext i16 %59 to i32
  %61 = trunc i64 %57 to i32
  %62 = add i32 %61, %60
  br label %63

63:                                               ; preds = %49, %41
  %.160 = phi i32 [ %62, %49 ], [ 0, %41 ]
  call void @llvm.lifetime.end.p0(i64 2, ptr nonnull %3) #4
  br label %.thread

64:                                               ; preds = %22
  call void @llvm.lifetime.start.p0(i64 2, ptr nonnull %4) #4
  %65 = trunc nuw i32 %18 to i16
  store i16 %65, ptr %4, align 2, !tbaa !58
  %66 = getelementptr inbounds nuw i8, ptr %16, i64 8
  %67 = load ptr, ptr %66, align 8, !tbaa !59
  %68 = getelementptr inbounds nuw i8, ptr %16, i64 24
  %69 = load i16, ptr %68, align 8, !tbaa !60
  %70 = zext i16 %69 to i64
  %71 = call ptr @lv_utils_bsearch(ptr noundef nonnull %4, ptr noundef %67, i64 noundef %70, i64 noundef 2, ptr noundef nonnull @unicode_list_compare) #4
  %.not67 = icmp eq ptr %71, null
  br i1 %.not67, label %89, label %72

72:                                               ; preds = %64
  %73 = load ptr, ptr %12, align 8, !tbaa !50
  %74 = getelementptr inbounds nuw %struct.lv_font_fmt_txt_cmap_t, ptr %73, i64 %indvars.iv
  %75 = getelementptr inbounds nuw i8, ptr %74, i64 8
  %76 = load ptr, ptr %75, align 8, !tbaa !59
  %77 = ptrtoint ptr %71 to i64
  %78 = ptrtoint ptr %76 to i64
  %79 = sub i64 %77, %78
  %80 = getelementptr inbounds nuw i8, ptr %74, i64 16
  %81 = load ptr, ptr %80, align 8, !tbaa !57
  %82 = getelementptr inbounds nuw i8, ptr %74, i64 6
  %83 = load i16, ptr %82, align 2, !tbaa !56
  %84 = zext i16 %83 to i32
  %85 = getelementptr inbounds nuw i8, ptr %81, i64 %79
  %86 = load i16, ptr %85, align 2, !tbaa !58
  %87 = zext i16 %86 to i32
  %88 = add nuw nsw i32 %87, %84
  br label %89

89:                                               ; preds = %72, %64
  %.261 = phi i32 [ %88, %72 ], [ 0, %64 ]
  call void @llvm.lifetime.end.p0(i64 2, ptr nonnull %4) #4
  br label %.thread

.thread:                                          ; preds = %14, %6, %22, %30, %89, %63, %25, %2
  %.0 = phi i32 [ 0, %2 ], [ 0, %22 ], [ %.261, %89 ], [ %.160, %63 ], [ %40, %30 ], [ %29, %25 ], [ 0, %6 ], [ 0, %14 ]
  ret i32 %.0
}